; ModuleID = '49/1108.c'
source_filename = "49/1108.c"
target datalayout = "e-m:e-p270:32:32-p271:32:32-p272:64:64-i64:64-f80:128-n8:16:32:64-S128"
target triple = "x86_64-pc-linux-gnu"

@.str = private unnamed_addr constant [3 x i8] c"%s\00", align 1
@.str.1 = private unnamed_addr constant [4 x i8] c"%s\0A\00", align 1

; Function Attrs: noinline nounwind uwtable
define dso_local i32 @main() #0 {
  %1 = alloca i32, align 4
  %2 = alloca [501 x i8], align 16
  %3 = alloca [501 x i8], align 16
  %4 = alloca i32, align 4
  %5 = alloca i32, align 4
  %6 = alloca i32, align 4
  %7 = alloca i32, align 4
  %8 = alloca i32, align 4
  %9 = alloca i32, align 4
  %10 = alloca i32, align 4
  store i32 0, i32* %1, align 4
  %11 = getelementptr inbounds [501 x i8], [501 x i8]* %2, i64 0, i64 0
  %12 = call i32 (i8*, ...) @__isoc99_scanf(i8* getelementptr inbounds ([3 x i8], [3 x i8]* @.str, i64 0, i64 0), i8* %11)
  %13 = getelementptr inbounds [501 x i8], [501 x i8]* %2, i64 0, i64 0
  %14 = call i64 @strlen(i8* %13) #3
  %15 = trunc i64 %14 to i32
  store i32 %15, i32* %7, align 4
  store i32 2, i32* %4, align 4
  br label %16

16:                                               ; preds = %87, %0
  %17 = load i32, i32* %4, align 4
  %18 = load i32, i32* %7, align 4
  %19 = icmp sle i32 %17, %18
  br i1 %19, label %20, label %90

20:                                               ; preds = %16
  store i32 0, i32* %5, align 4
  br label %21

21:                                               ; preds = %83, %20
  %22 = load i32, i32* %5, align 4
  %23 = load i32, i32* %7, align 4
  %24 = load i32, i32* %4, align 4
  %25 = sub nsw i32 %23, %24
  %26 = add nsw i32 %25, 1
  %27 = icmp slt i32 %22, %26
  br i1 %27, label %28, label %86

28:                                               ; preds = %21
  store i32 0, i32* %6, align 4
  br label %29

29:                                               ; preds = %43, %28
  %30 = load i32, i32* %6, align 4
  %31 = load i32, i32* %4, align 4
  %32 = icmp slt i32 %30, %31
  br i1 %32, label %33, label %46

33:                                               ; preds = %29
  %34 = load i32, i32* %5, align 4
  %35 = load i32, i32* %6, align 4
  %36 = add nsw i32 %34, %35
  %37 = sext i32 %36 to i64
  %38 = getelementptr inbounds [501 x i8], [501 x i8]* %2, i64 0, i64 %37
  %39 = load i8, i8* %38, align 1
  %40 = load i32, i32* %6, align 4
  %41 = sext i32 %40 to i64
  %42 = getelementptr inbounds [501 x i8], [501 x i8]* %3, i64 0, i64 %41
  store i8 %39, i8* %42, align 1
  br label %43

43:                                               ; preds = %33
  %44 = load i32, i32* %6, align 4
  %45 = add nsw i32 %44, 1
  store i32 %45, i32* %6, align 4
  br label %29

46:                                               ; preds = %29
  store i32 0, i32* %8, align 4
  store i32 0, i32* %10, align 4
  br label %47

47:                                               ; preds = %70, %46
  %48 = load i32, i32* %8, align 4
  %49 = load i32, i32* %4, align 4
  %50 = sub nsw i32 %49, 2
  %51 = sdiv i32 %50, 2
  %52 = icmp sle i32 %48, %51
  br i1 %52, label %53, label %73

53:                                               ; preds = %47
  %54 = load i32, i32* %8, align 4
  %55 = sext i32 %54 to i64
  %56 = getelementptr inbounds [501 x i8], [501 x i8]* %3, i64 0, i64 %55
  %57 = load i8, i8* %56, align 1
  %58 = sext i8 %57 to i32
  %59 = load i32, i32* %4, align 4
  %60 = sub nsw i32 %59, 1
  %61 = load i32, i32* %8, align 4
  %62 = sub nsw i32 %60, %61
  %63 = sext i32 %62 to i64
  %64 = getelementptr inbounds [501 x i8], [501 x i8]* %3, i64 0, i64 %63
  %65 = load i8, i8* %64, align 1
  %66 = sext i8 %65 to i32
  %67 = icmp ne i32 %58, %66
  br i1 %67, label %68, label %69

68:                                               ; preds = %53
  store i32 1, i32* %10, align 4
  br label %69

69:                                               ; preds = %68, %53
  br label %70

70:                                               ; preds = %69
  %71 = load i32, i32* %8, align 4
  %72 = add nsw i32 %71, 1
  store i32 %72, i32* %8, align 4
  br label %47

73:                                               ; preds = %47
  %74 = load i32, i32* %4, align 4
  %75 = sext i32 %74 to i64
  %76 = getelementptr inbounds [501 x i8], [501 x i8]* %3, i64 0, i64 %75
  store i8 0, i8* %76, align 1
  %77 = load i32, i32* %10, align 4
  %78 = icmp eq i32 %77, 0
  br i1 %78, label %79, label %82

79:                                               ; preds = %73
  %80 = getelementptr inbounds [501 x i8], [501 x i8]* %3, i64 0, i64 0
  %81 = call i32 (i8*, ...) @printf(i8* getelementptr inbounds ([4 x i8], [4 x i8]* @.str.1, i64 0, i64 0), i8* %80)
  br label %82

82:                                               ; preds = %79, %73
  br label %83

83:                                               ; preds = %82
  %84 = load i32, i32* %5, align 4
  %85 = add nsw i32 %84, 1
  store i32 %85, i32* %5, align 4
  br label %21

86:                                               ; preds = %21
  br label %87

87:                                               ; preds = %86
  %88 = load i32, i32* %4, align 4
  %89 = add nsw i32 %88, 1
  store i32 %89, i32* %4, align 4
  br label %16

90:                                               ; preds = %16
  ret i32 0
}

declare dso_local i32 @__isoc99_scanf(i8*, ...) #1

; Function Attrs: nounwind readonly
declare dso_local i64 @strlen(i8*) #2

declare dso_local i32 @printf(i8*, ...) #1


!llvm.module.flags = !{!0}
!llvm.ident = !{!1}

!0 = !{i32 1, !"wchar_size", i32 4}
!1 = !{!"clang version 10.0.0-4ubuntu1 "}
